; Function Attrs: nofree nounwind uwtable
define void @Abc_NtkDumpVariableOrder(ptr noundef readonly captures(none) %0) local_unnamed_addr #4 {
  %2 = getelementptr i8, ptr %0, i64 432
  %.val = load ptr, ptr %2, align 8, !tbaa !67
  %3 = getelementptr i8, ptr %.val, i64 8
  %.val.val = load ptr, ptr %3, align 8, !tbaa !22
  %4 = getelementptr i8, ptr %.val.val, i64 56
  %.val.val.val = load ptr, ptr %4, align 8, !tbaa !24
  %5 = getelementptr i8, ptr %.val.val.val, i64 16
  %.val.val.val.val = load ptr, ptr %5, align 8, !tbaa !68
  %6 = tail call noalias ptr @fopen(ptr noundef nonnull @.str, ptr noundef nonnull @.str.1)
  %7 = getelementptr inbounds nuw i8, ptr %.val.val.val.val, i64 136
  %8 = load i32, ptr %7, align 8, !tbaa !76
  %9 = icmp sgt i32 %8, 0
  br i1 %9, label %.lr.ph, label %._crit_edge

.lr.ph:                                           ; preds = %1
  %10 = getelementptr inbounds nuw i8, ptr %.val.val.val.val, i64 328
  br label %11

11:                                               ; preds = %.lr.ph, %11
  %indvars.iv = phi i64 [ 0, %.lr.ph ], [ %indvars.iv.next, %11 ]
  %12 = load ptr, ptr %10, align 8, !tbaa !52
  %13 = getelementptr inbounds nuw i32, ptr %12, i64 %indvars.iv
  %14 = load i32, ptr %13, align 4, !tbaa !28
  %15 = tail call i32 (ptr, ptr, ...) @fprintf(ptr noundef %6, ptr noundef nonnull @.str.2, i32 noundef %14) #18
  %indvars.iv.next = add nuw nsw i64 %indvars.iv, 1
  %16 = load i32, ptr %7, align 8, !tbaa !76
  %17 = sext i32 %16 to i64
  %18 = icmp slt i64 %indvars.iv.next, %17
  br i1 %18, label %11, label %._crit_edge, !llvm.loop !79

._crit_edge:                                      ; preds = %11, %1
  %fputc = tail call i32 @fputc(i32 10, ptr %6)
  %19 = tail call i32 @fclose(ptr noundef %6)
  ret void
}